target datalayout = "e-m:e-p270:32:32-p271:32:32-p272:64:64-i64:64-i128:128-f80:128-n8:16:32:64-S128"
target triple = "x86_64-pc-linux-gnu"

%struct._N_VectorContent_Serial = type { i64, i32, ptr }
%struct._generic_N_Vector = type { ptr, ptr }

; Function Attrs: nounwind uwtable
define void @N_VDestroy_Serial(ptr noundef %0) #0 {
  %2 = alloca ptr, align 8
  store ptr %0, ptr %2, align 8, !tbaa !7
  %3 = load ptr, ptr %2, align 8, !tbaa !7
  %4 = getelementptr inbounds nuw %struct._generic_N_Vector, ptr %3, i32 0, i32 0
  %5 = load ptr, ptr %4, align 8, !tbaa !46
  %6 = getelementptr inbounds nuw %struct._N_VectorContent_Serial, ptr %5, i32 0, i32 1
  %7 = load i32, ptr %6, align 8, !tbaa !44
  %8 = icmp eq i32 %7, 1
  br i1 %8, label %9, label %19

9:                                                ; preds = %1
  %10 = load ptr, ptr %2, align 8, !tbaa !7
  %11 = getelementptr inbounds nuw %struct._generic_N_Vector, ptr %10, i32 0, i32 0
  %12 = load ptr, ptr %11, align 8, !tbaa !46
  %13 = getelementptr inbounds nuw %struct._N_VectorContent_Serial, ptr %12, i32 0, i32 2
  %14 = load ptr, ptr %13, align 8, !tbaa !45
  call void @free(ptr noundef %14) #6
  %15 = load ptr, ptr %2, align 8, !tbaa !7
  %16 = getelementptr inbounds nuw %struct._generic_N_Vector, ptr %15, i32 0, i32 0
  %17 = load ptr, ptr %16, align 8, !tbaa !46
  %18 = getelementptr inbounds nuw %struct._N_VectorContent_Serial, ptr %17, i32 0, i32 2
  store ptr null, ptr %18, align 8, !tbaa !45
  br label %19

19:                                               ; preds = %9, %1
  %20 = load ptr, ptr %2, align 8, !tbaa !7
  %21 = getelementptr inbounds nuw %struct._generic_N_Vector, ptr %20, i32 0, i32 0
  %22 = load ptr, ptr %21, align 8, !tbaa !46
  call void @free(ptr noundef %22) #6
  %23 = load ptr, ptr %2, align 8, !tbaa !7
  %24 = getelementptr inbounds nuw %struct._generic_N_Vector, ptr %23, i32 0, i32 0
  store ptr null, ptr %24, align 8, !tbaa !46
  %25 = load ptr, ptr %2, align 8, !tbaa !7
  %26 = getelementptr inbounds nuw %struct._generic_N_Vector, ptr %25, i32 0, i32 1
  %27 = load ptr, ptr %26, align 8, !tbaa !48
  call void @free(ptr noundef %27) #6
  %28 = load ptr, ptr %2, align 8, !tbaa !7
  %29 = getelementptr inbounds nuw %struct._generic_N_Vector, ptr %28, i32 0, i32 1
  store ptr null, ptr %29, align 8, !tbaa !48
  %30 = load ptr, ptr %2, align 8, !tbaa !7
  call void @free(ptr noundef %30) #6
  store ptr null, ptr %2, align 8, !tbaa !7
  ret void
}

; Function Attrs: nounwind uwtable
define void @N_VDestroyVectorArray_Serial(ptr noundef %0, i32 noundef %1) #0 {
  %3 = alloca ptr, align 8
  %4 = alloca i32, align 4
  %5 = alloca i32, align 4
  store ptr %0, ptr %3, align 8, !tbaa !75
  store i32 %1, ptr %4, align 4, !tbaa !54
  call void @llvm.lifetime.start.p0(i64 4, ptr %5) #6
  store i32 0, ptr %5, align 4, !tbaa !54
  br label %6

6:                                                ; preds = %16, %2
  %7 = load i32, ptr %5, align 4, !tbaa !54
  %8 = load i32, ptr %4, align 4, !tbaa !54
  %9 = icmp slt i32 %7, %8
  br i1 %9, label %10, label %19

10:                                               ; preds = %6
  %11 = load ptr, ptr %3, align 8, !tbaa !75
  %12 = load i32, ptr %5, align 4, !tbaa !54
  %13 = sext i32 %12 to i64
  %14 = getelementptr inbounds ptr, ptr %11, i64 %13
  %15 = load ptr, ptr %14, align 8, !tbaa !7
  call void @N_VDestroy_Serial(ptr noundef %15)
  br label %16

16:                                               ; preds = %10
  %17 = load i32, ptr %5, align 4, !tbaa !54
  %18 = add nsw i32 %17, 1
  store i32 %18, ptr %5, align 4, !tbaa !54
  br label %6, !llvm.loop !78

19:                                               ; preds = %6
  %20 = load ptr, ptr %3, align 8, !tbaa !75
  call void @free(ptr noundef %20) #6
  store ptr null, ptr %3, align 8, !tbaa !75
  call void @llvm.lifetime.end.p0(i64 4, ptr %5) #6
  ret void
}

; Function Attrs: nounwind uwtable
define ptr @N_VCloneVectorArrayEmpty_Serial(i32 noundef %0, ptr noundef %1) #0 {
  %3 = alloca ptr, align 8
  %4 = alloca i32, align 4
  %5 = alloca ptr, align 8
  %6 = alloca ptr, align 8
  %7 = alloca i32, align 4
  %8 = alloca i32, align 4
  store i32 %0, ptr %4, align 4, !tbaa !54
  store ptr %1, ptr %5, align 8, !tbaa !7
  call void @llvm.lifetime.start.p0(i64 8, ptr %6) #6
  call void @llvm.lifetime.start.p0(i64 4, ptr %7) #6
  %9 = load i32, ptr %4, align 4, !tbaa !54
  %10 = icmp sle i32 %9, 0
  br i1 %10, label %11, label %12

11:                                               ; preds = %2
  store ptr null, ptr %3, align 8
  store i32 1, ptr %8, align 4
  br label %52

12:                                               ; preds = %2
  store ptr null, ptr %6, align 8, !tbaa !75
  %13 = load i32, ptr %4, align 4, !tbaa !54
  %14 = sext i32 %13 to i64
  %15 = mul i64 %14, 8
  %16 = call noalias ptr @malloc(i64 noundef %15) #7
  store ptr %16, ptr %6, align 8, !tbaa !75
  %17 = load ptr, ptr %6, align 8, !tbaa !75
  %18 = icmp eq ptr %17, null
  br i1 %18, label %19, label %20

19:                                               ; preds = %12
  store ptr null, ptr %3, align 8
  store i32 1, ptr %8, align 4
  br label %52

20:                                               ; preds = %12
  store i32 0, ptr %7, align 4, !tbaa !54
  br label %21

21:                                               ; preds = %47, %20
  %22 = load i32, ptr %7, align 4, !tbaa !54
  %23 = load i32, ptr %4, align 4, !tbaa !54
  %24 = icmp slt i32 %22, %23
  br i1 %24, label %25, label %50

25:                                               ; preds = %21
  %26 = load ptr, ptr %6, align 8, !tbaa !75
  %27 = load i32, ptr %7, align 4, !tbaa !54
  %28 = sext i32 %27 to i64
  %29 = getelementptr inbounds ptr, ptr %26, i64 %28
  store ptr null, ptr %29, align 8, !tbaa !7
  %30 = load ptr, ptr %5, align 8, !tbaa !7
  %31 = call ptr @N_VCloneEmpty_Serial(ptr noundef %30)
  %32 = load ptr, ptr %6, align 8, !tbaa !75
  %33 = load i32, ptr %7, align 4, !tbaa !54
  %34 = sext i32 %33 to i64
  %35 = getelementptr inbounds ptr, ptr %32, i64 %34
  store ptr %31, ptr %35, align 8, !tbaa !7
  %36 = load ptr, ptr %6, align 8, !tbaa !75
  %37 = load i32, ptr %7, align 4, !tbaa !54
  %38 = sext i32 %37 to i64
  %39 = getelementptr inbounds ptr, ptr %36, i64 %38
  %40 = load ptr, ptr %39, align 8, !tbaa !7
  %41 = icmp eq ptr %40, null
  br i1 %41, label %42, label %46

42:                                               ; preds = %25
  %43 = load ptr, ptr %6, align 8, !tbaa !75
  %44 = load i32, ptr %7, align 4, !tbaa !54
  %45 = sub nsw i32 %44, 1
  call void @N_VDestroyVectorArray_Serial(ptr noundef %43, i32 noundef %45)
  store ptr null, ptr %3, align 8
  store i32 1, ptr %8, align 4
  br label %52

46:                                               ; preds = %25
  br label %47

47:                                               ; preds = %46
  %48 = load i32, ptr %7, align 4, !tbaa !54
  %49 = add nsw i32 %48, 1
  store i32 %49, ptr %7, align 4, !tbaa !54
  br label %21, !llvm.loop !79

50:                                               ; preds = %21
  %51 = load ptr, ptr %6, align 8, !tbaa !75
  store ptr %51, ptr %3, align 8
  store i32 1, ptr %8, align 4
  br label %52

52:                                               ; preds = %50, %42, %19, %11
  call void @llvm.lifetime.end.p0(i64 4, ptr %7) #6
  call void @llvm.lifetime.end.p0(i64 8, ptr %6) #6
  %53 = load ptr, ptr %3, align 8
  ret ptr %53
}