; Function Attrs: nounwind uwtable
define noalias noundef ptr @N_VCloneVectorArrayEmpty_Serial(i32 noundef %0, ptr noundef captures(address_is_null) %1) local_unnamed_addr #9 {
  %3 = icmp slt i32 %0, 1
  br i1 %3, label %.loopexit, label %4

4:                                                ; preds = %2
  %5 = zext nneg i32 %0 to i64
  %6 = shl nuw nsw i64 %5, 3
  %7 = tail call noalias ptr @malloc(i64 noundef %6) #17
  %8 = icmp eq ptr %7, null
  br i1 %8, label %.loopexit, label %.lr.ph

.lr.ph:                                           ; preds = %4, %29
  %indvars.iv = phi i64 [ %indvars.iv.next, %29 ], [ 0, %4 ]
  %9 = getelementptr inbounds nuw ptr, ptr %7, i64 %indvars.iv
  %10 = tail call ptr @N_VCloneEmpty_Serial(ptr noundef %1)
  store ptr %10, ptr %9, align 8, !tbaa !78
  %11 = icmp eq ptr %10, null
  br i1 %11, label %12, label %29

12:                                               ; preds = %.lr.ph
  %13 = icmp samesign ugt i64 %indvars.iv, 1
  br i1 %13, label %.lr.ph.preheader.i, label %N_VDestroyVectorArray_Serial.exit

.lr.ph.preheader.i:                               ; preds = %12
  %14 = add nuw i64 %indvars.iv, 4294967295
  %wide.trip.count.i = and i64 %14, 4294967295
  br label %.lr.ph.i

.lr.ph.i:                                         ; preds = %N_VDestroy_Serial.exit.i, %.lr.ph.preheader.i
  %indvars.iv.i = phi i64 [ 0, %.lr.ph.preheader.i ], [ %indvars.iv.next.i, %N_VDestroy_Serial.exit.i ]
  %15 = getelementptr inbounds nuw ptr, ptr %7, i64 %indvars.iv.i
  %16 = load ptr, ptr %15, align 8, !tbaa !78
  %17 = load ptr, ptr %16, align 8, !tbaa !39
  %18 = getelementptr inbounds nuw i8, ptr %17, i64 8
  %19 = load i32, ptr %18, align 8, !tbaa !37
  %20 = icmp eq i32 %19, 1
  br i1 %20, label %21, label %N_VDestroy_Serial.exit.i

21:                                               ; preds = %.lr.ph.i
  %22 = getelementptr inbounds nuw i8, ptr %17, i64 16
  %23 = load ptr, ptr %22, align 8, !tbaa !38
  tail call void @free(ptr noundef %23) #18
  %24 = load ptr, ptr %16, align 8, !tbaa !39
  %25 = getelementptr inbounds nuw i8, ptr %24, i64 16
  store ptr null, ptr %25, align 8, !tbaa !38
  br label %N_VDestroy_Serial.exit.i

N_VDestroy_Serial.exit.i:                         ; preds = %21, %.lr.ph.i
  %26 = phi ptr [ %24, %21 ], [ %17, %.lr.ph.i ]
  tail call void @free(ptr noundef nonnull %26) #18
  store ptr null, ptr %16, align 8, !tbaa !39
  %27 = getelementptr inbounds nuw i8, ptr %16, i64 8
  %28 = load ptr, ptr %27, align 8, !tbaa !42
  tail call void @free(ptr noundef %28) #18
  tail call void @free(ptr noundef nonnull %16) #18
  %indvars.iv.next.i = add nuw nsw i64 %indvars.iv.i, 1
  %exitcond.not.i = icmp eq i64 %indvars.iv.next.i, %wide.trip.count.i
  br i1 %exitcond.not.i, label %N_VDestroyVectorArray_Serial.exit, label %.lr.ph.i, !llvm.loop !80

N_VDestroyVectorArray_Serial.exit:                ; preds = %N_VDestroy_Serial.exit.i, %12
  tail call void @free(ptr noundef nonnull %7) #18
  br label %.loopexit

29:                                               ; preds = %.lr.ph
  %indvars.iv.next = add nuw nsw i64 %indvars.iv, 1
  %exitcond.not = icmp eq i64 %indvars.iv.next, %5
  br i1 %exitcond.not, label %.loopexit, label %.lr.ph, !llvm.loop !82

.loopexit:                                        ; preds = %29, %4, %2, %N_VDestroyVectorArray_Serial.exit
  %.016 = phi ptr [ null, %N_VDestroyVectorArray_Serial.exit ], [ null, %2 ], [ null, %4 ], [ %7, %29 ]
  ret ptr %.016
}